; Function Attrs: nofree norecurse nosync nounwind memory(argmem: readwrite) uwtable
define void @H5VM_chunk_scaled(i32 noundef %0, ptr nocapture noundef readonly %1, ptr nocapture noundef readonly %2, ptr nocapture noundef writeonly %3) local_unnamed_addr #5 {
  %.not = icmp eq i32 %0, 0
  br i1 %.not, label %._crit_edge, label %.lr.ph.preheader

.lr.ph.preheader:                                 ; preds = %4
  %wide.trip.count = zext i32 %0 to i64
  br label %.lr.ph

.lr.ph:                                           ; preds = %.lr.ph.preheader, %.lr.ph
  %indvars.iv = phi i64 [ 0, %.lr.ph.preheader ], [ %indvars.iv.next, %.lr.ph ]
  %5 = getelementptr inbounds i64, ptr %1, i64 %indvars.iv
  %6 = load i64, ptr %5, align 8
  %7 = getelementptr inbounds i32, ptr %2, i64 %indvars.iv
  %8 = load i32, ptr %7, align 4
  %9 = zext i32 %8 to i64
  %10 = udiv i64 %6, %9
  %11 = getelementptr inbounds i64, ptr %3, i64 %indvars.iv
  store i64 %10, ptr %11, align 8
  %indvars.iv.next = add nuw nsw i64 %indvars.iv, 1
  %exitcond.not = icmp eq i64 %indvars.iv.next, %wide.trip.count
  br i1 %exitcond.not, label %._crit_edge, label %.lr.ph

._crit_edge:                                      ; preds = %.lr.ph, %4
  ret void
}